target datalayout = "e-m:e-p270:32:32-p271:32:32-p272:64:64-i64:64-i128:128-f80:128-n8:16:32:64-S128"
target triple = "x86_64-pc-linux-gnu"

%struct.AVTXContext = type { i32, i32, ptr, ptr, ptr, ptr, [4 x ptr], i32, [4 x ptr], ptr, i32, i64, i32, float, double, ptr }
%struct.FFTXCodelet = type { ptr, ptr, i32, i64, [16 x i32], i32, i32, i32, ptr, ptr, i32, i32 }

@.str.60 = private unnamed_addr constant [5 x i8] c"    \00", align 1

; Function Attrs: nounwind uwtable
define internal void @print_tx_structure(ptr noundef %0, i32 noundef %1) #0 {
  %3 = alloca ptr, align 8
  %4 = alloca i32, align 4
  %5 = alloca ptr, align 8
  %6 = alloca i32, align 4
  %7 = alloca i32, align 4
  store ptr %0, ptr %3, align 8, !tbaa !4
  store i32 %1, ptr %4, align 4, !tbaa !11
  call void @llvm.lifetime.start.p0(i64 8, ptr %5) #11
  %8 = load ptr, ptr %3, align 8, !tbaa !4
  %9 = getelementptr inbounds nuw %struct.AVTXContext, ptr %8, i32 0, i32 9
  %10 = load ptr, ptr %9, align 8, !tbaa !48
  store ptr %10, ptr %5, align 8, !tbaa !59
  call void @llvm.lifetime.start.p0(i64 4, ptr %6) #11
  store i32 0, ptr %6, align 4, !tbaa !11
  br label %11

11:                                               ; preds = %17, %2
  %12 = load i32, ptr %6, align 4, !tbaa !11
  %13 = load i32, ptr %4, align 4, !tbaa !11
  %14 = icmp sle i32 %12, %13
  br i1 %14, label %16, label %15

15:                                               ; preds = %11
  call void @llvm.lifetime.end.p0(i64 4, ptr %6) #11
  br label %20

16:                                               ; preds = %11
  call void (ptr, i32, ptr, ...) @av_log(ptr noundef null, i32 noundef 48, ptr noundef @.str.60)
  br label %17

17:                                               ; preds = %16
  %18 = load i32, ptr %6, align 4, !tbaa !11
  %19 = add nsw i32 %18, 1
  store i32 %19, ptr %6, align 4, !tbaa !11
  br label %11, !llvm.loop !128

20:                                               ; preds = %15
  %21 = load ptr, ptr %5, align 8, !tbaa !59
  %22 = load ptr, ptr %5, align 8, !tbaa !59
  %23 = getelementptr inbounds nuw %struct.FFTXCodelet, ptr %22, i32 0, i32 11
  %24 = load i32, ptr %23, align 4, !tbaa !88
  %25 = load ptr, ptr %3, align 8, !tbaa !4
  %26 = getelementptr inbounds nuw %struct.AVTXContext, ptr %25, i32 0, i32 0
  %27 = load i32, ptr %26, align 8, !tbaa !13
  call void @print_cd_info(ptr noundef %21, i32 noundef %24, i32 noundef %27, i32 noundef 0, i32 noundef 48)
  call void @llvm.lifetime.start.p0(i64 4, ptr %7) #11
  store i32 0, ptr %7, align 4, !tbaa !11
  br label %28

28:                                               ; preds = %44, %20
  %29 = load i32, ptr %7, align 4, !tbaa !11
  %30 = load ptr, ptr %3, align 8, !tbaa !4
  %31 = getelementptr inbounds nuw %struct.AVTXContext, ptr %30, i32 0, i32 7
  %32 = load i32, ptr %31, align 8, !tbaa !52
  %33 = icmp slt i32 %29, %32
  br i1 %33, label %35, label %34

34:                                               ; preds = %28
  call void @llvm.lifetime.end.p0(i64 4, ptr %7) #11
  br label %47

35:                                               ; preds = %28
  %36 = load ptr, ptr %3, align 8, !tbaa !4
  %37 = getelementptr inbounds nuw %struct.AVTXContext, ptr %36, i32 0, i32 5
  %38 = load ptr, ptr %37, align 8, !tbaa !42
  %39 = load i32, ptr %7, align 4, !tbaa !11
  %40 = sext i32 %39 to i64
  %41 = getelementptr inbounds %struct.AVTXContext, ptr %38, i64 %40
  %42 = load i32, ptr %4, align 4, !tbaa !11
  %43 = add nsw i32 %42, 1
  call void @print_tx_structure(ptr noundef %41, i32 noundef %43)
  br label %44

44:                                               ; preds = %35
  %45 = load i32, ptr %7, align 4, !tbaa !11
  %46 = add nsw i32 %45, 1
  store i32 %46, ptr %7, align 4, !tbaa !11
  br label %28, !llvm.loop !129

47:                                               ; preds = %34
  call void @llvm.lifetime.end.p0(i64 8, ptr %5) #11
  ret void
}