; Function Attrs: nounwind uwtable
define internal fastcc void @print_tx_structure(ptr noundef readonly captures(none) %0, i32 noundef %1) unnamed_addr #0 {
  %3 = getelementptr inbounds nuw i8, ptr %0, i64 112
  %4 = load ptr, ptr %3, align 8, !tbaa !44
  %.not14 = icmp slt i32 %1, 0
  br i1 %.not14, label %._crit_edge, label %.lr.ph

._crit_edge:                                      ; preds = %.lr.ph, %2
  %5 = getelementptr inbounds nuw i8, ptr %4, i64 132
  %6 = load i32, ptr %5, align 4, !tbaa !64
  %7 = load i32, ptr %0, align 8, !tbaa !4
  tail call fastcc void @print_cd_info(ptr noundef %4, i32 noundef %6, i32 noundef %7, i32 noundef 0, i32 noundef 48)
  %8 = getelementptr inbounds nuw i8, ptr %0, i64 72
  %9 = load i32, ptr %8, align 8, !tbaa !48
  %10 = icmp sgt i32 %9, 0
  br i1 %10, label %.lr.ph18, label %._crit_edge19

.lr.ph18:                                         ; preds = %._crit_edge
  %11 = getelementptr inbounds nuw i8, ptr %0, i64 32
  %12 = add nsw i32 %1, 1
  br label %14

.lr.ph:                                           ; preds = %2, %.lr.ph
  %.01215 = phi i32 [ %13, %.lr.ph ], [ 0, %2 ]
  tail call void (ptr, i32, ptr, ...) @av_log(ptr noundef null, i32 noundef 48, ptr noundef nonnull @.str.60) #13
  %13 = add nuw i32 %.01215, 1
  %exitcond.not = icmp eq i32 %.01215, %1
  br i1 %exitcond.not, label %._crit_edge, label %.lr.ph, !llvm.loop !110

._crit_edge19:                                    ; preds = %14, %._crit_edge
  ret void

14:                                               ; preds = %.lr.ph18, %14
  %indvars.iv = phi i64 [ 0, %.lr.ph18 ], [ %indvars.iv.next, %14 ]
  %15 = load ptr, ptr %11, align 8, !tbaa !38
  %16 = getelementptr inbounds nuw %struct.AVTXContext, ptr %15, i64 %indvars.iv
  tail call fastcc void @print_tx_structure(ptr noundef %16, i32 noundef %12)
  %indvars.iv.next = add nuw nsw i64 %indvars.iv, 1
  %17 = load i32, ptr %8, align 8, !tbaa !48
  %18 = sext i32 %17 to i64
  %19 = icmp slt i64 %indvars.iv.next, %18
  br i1 %19, label %14, label %._crit_edge19, !llvm.loop !111
}